; Function Attrs: nounwind uwtable
define dso_local void @update_stepd_logging(i1 noundef zeroext %0) local_unnamed_addr #0 {
  %2 = alloca i8, align 1
  %3 = zext i1 %0 to i8
  store i8 %3, ptr %2, align 1
  %4 = load ptr, ptr @conf, align 8
  %5 = getelementptr inbounds nuw i8, ptr %4, i64 4360
  %6 = load ptr, ptr %5, align 8
  %7 = getelementptr inbounds nuw i8, ptr %4, i64 4272
  %8 = load ptr, ptr %7, align 8
  %9 = tail call ptr @stepd_available(ptr noundef %6, ptr noundef %8) #18
  %10 = call i32 @list_for_each(ptr noundef %9, ptr noundef nonnull @_reconfig_stepd, ptr noundef nonnull %2) #18
  %.not = icmp eq ptr %9, null
  br i1 %.not, label %12, label %11

11:                                               ; preds = %1
  call void @list_destroy(ptr noundef nonnull %9) #18
  br label %12

12:                                               ; preds = %11, %1
  ret void
}